target datalayout = "e-m:e-p270:32:32-p271:32:32-p272:64:64-i64:64-i128:128-f80:128-n8:16:32:64-S128"
target triple = "x86_64-pc-linux-gnu"

%struct.Vec_Ptr_t_ = type { i32, i32, ptr }
%struct.Sim_Man_t_ = type { ptr, i32, i32, i32, i32, i32, ptr, ptr, i32, i32, ptr, ptr, ptr, i32, ptr, ptr, ptr, i32, i32, i32, i64, i64, i64, i64, i64 }
%struct.Vec_Vec_t_ = type { i32, i32, ptr }
%struct.timespec = type { i64, i64 }

; Function Attrs: inlinehint nounwind uwtable
define internal i64 @Abc_Clock() #2 {
  %1 = alloca i64, align 8
  %2 = alloca %struct.timespec, align 8
  %3 = alloca i32, align 4
  %4 = alloca i64, align 8
  call void @llvm.lifetime.start.p0(i64 16, ptr %2) #7
  %5 = call i32 @clock_gettime(i32 noundef 1, ptr noundef %2) #7
  %6 = icmp slt i32 %5, 0
  br i1 %6, label %7, label %8

7:                                                ; preds = %0
  store i64 -1, ptr %1, align 8
  store i32 1, ptr %3, align 4
  br label %19

8:                                                ; preds = %0
  call void @llvm.lifetime.start.p0(i64 8, ptr %4) #7
  %9 = getelementptr inbounds nuw %struct.timespec, ptr %2, i32 0, i32 0
  %10 = load i64, ptr %9, align 8, !tbaa !103
  %11 = mul nsw i64 %10, 1000000
  store i64 %11, ptr %4, align 8, !tbaa !45
  %12 = getelementptr inbounds nuw %struct.timespec, ptr %2, i32 0, i32 1
  %13 = load i64, ptr %12, align 8, !tbaa !105
  %14 = mul nsw i64 %13, 1000000
  %15 = sdiv i64 %14, 1000000000
  %16 = load i64, ptr %4, align 8, !tbaa !45
  %17 = add nsw i64 %16, %15
  store i64 %17, ptr %4, align 8, !tbaa !45
  %18 = load i64, ptr %4, align 8, !tbaa !45
  store i64 %18, ptr %1, align 8
  store i32 1, ptr %3, align 4
  call void @llvm.lifetime.end.p0(i64 8, ptr %4) #7
  br label %19

19:                                               ; preds = %8, %7
  call void @llvm.lifetime.end.p0(i64 16, ptr %2) #7
  %20 = load i64, ptr %1, align 8
  ret i64 %20
}

; Function Attrs: nounwind uwtable
define internal i32 @Sim_ComputeSuppRound(ptr noundef %0, i32 noundef %1) #0 {
  %3 = alloca ptr, align 8
  %4 = alloca i32, align 4
  %5 = alloca ptr, align 8
  %6 = alloca i32, align 4
  %7 = alloca i32, align 4
  %8 = alloca i64, align 8
  store ptr %0, ptr %3, align 8, !tbaa !47
  store i32 %1, ptr %4, align 4, !tbaa !8
  call void @llvm.lifetime.start.p0(i64 8, ptr %5) #7
  call void @llvm.lifetime.start.p0(i64 4, ptr %6) #7
  call void @llvm.lifetime.start.p0(i64 4, ptr %7) #7
  store i32 0, ptr %7, align 4, !tbaa !8
  call void @llvm.lifetime.start.p0(i64 8, ptr %8) #7
  %9 = call i64 @Abc_Clock()
  store i64 %9, ptr %8, align 8, !tbaa !45
  %10 = load ptr, ptr %3, align 8, !tbaa !47
  call void @Sim_UtilSimulate(ptr noundef %10, i32 noundef 0)
  %11 = call i64 @Abc_Clock()
  %12 = load i64, ptr %8, align 8, !tbaa !45
  %13 = sub nsw i64 %11, %12
  %14 = load ptr, ptr %3, align 8, !tbaa !47
  %15 = getelementptr inbounds nuw %struct.Sim_Man_t_, ptr %14, i32 0, i32 20
  %16 = load i64, ptr %15, align 8, !tbaa !65
  %17 = add nsw i64 %16, %13
  store i64 %17, ptr %15, align 8, !tbaa !65
  %18 = load ptr, ptr %3, align 8, !tbaa !47
  %19 = getelementptr inbounds nuw %struct.Sim_Man_t_, ptr %18, i32 0, i32 13
  %20 = load i32, ptr %19, align 8, !tbaa !66
  store i32 %20, ptr %6, align 4, !tbaa !8
  br label %21

21:                                               ; preds = %52, %2
  %22 = load i32, ptr %6, align 4, !tbaa !8
  %23 = load ptr, ptr %3, align 8, !tbaa !47
  %24 = getelementptr inbounds nuw %struct.Sim_Man_t_, ptr %23, i32 0, i32 1
  %25 = load i32, ptr %24, align 8, !tbaa !67
  %26 = icmp slt i32 %22, %25
  br i1 %26, label %27, label %55

27:                                               ; preds = %21
  %28 = load ptr, ptr %3, align 8, !tbaa !47
  %29 = getelementptr inbounds nuw %struct.Sim_Man_t_, ptr %28, i32 0, i32 12
  %30 = load ptr, ptr %29, align 8, !tbaa !49
  %31 = getelementptr inbounds nuw %struct.Vec_Vec_t_, ptr %30, i32 0, i32 2
  %32 = load ptr, ptr %31, align 8, !tbaa !68
  %33 = load i32, ptr %6, align 4, !tbaa !8
  %34 = sext i32 %33 to i64
  %35 = getelementptr inbounds ptr, ptr %32, i64 %34
  %36 = load ptr, ptr %35, align 8, !tbaa !20
  store ptr %36, ptr %5, align 8, !tbaa !10
  %37 = load i32, ptr %4, align 4, !tbaa !8
  %38 = icmp ne i32 %37, 0
  br i1 %38, label %39, label %45

39:                                               ; preds = %27
  %40 = load ptr, ptr %5, align 8, !tbaa !10
  %41 = getelementptr inbounds nuw %struct.Vec_Ptr_t_, ptr %40, i32 0, i32 1
  %42 = load i32, ptr %41, align 4, !tbaa !42
  %43 = icmp eq i32 %42, 0
  br i1 %43, label %44, label %45

44:                                               ; preds = %39
  br label %52

45:                                               ; preds = %39, %27
  %46 = load ptr, ptr %3, align 8, !tbaa !47
  %47 = load i32, ptr %6, align 4, !tbaa !8
  %48 = load i32, ptr %4, align 4, !tbaa !8
  %49 = call i32 @Sim_ComputeSuppRoundNode(ptr noundef %46, i32 noundef %47, i32 noundef %48)
  %50 = load i32, ptr %7, align 4, !tbaa !8
  %51 = add nsw i32 %50, %49
  store i32 %51, ptr %7, align 4, !tbaa !8
  br label %52

52:                                               ; preds = %45, %44
  %53 = load i32, ptr %6, align 4, !tbaa !8
  %54 = add nsw i32 %53, 1
  store i32 %54, ptr %6, align 4, !tbaa !8
  br label %21, !llvm.loop !70

55:                                               ; preds = %21
  %56 = load i32, ptr %7, align 4, !tbaa !8
  call void @llvm.lifetime.end.p0(i64 8, ptr %8) #7
  call void @llvm.lifetime.end.p0(i64 4, ptr %7) #7
  call void @llvm.lifetime.end.p0(i64 4, ptr %6) #7
  call void @llvm.lifetime.end.p0(i64 8, ptr %5) #7
  ret i32 %56
}