; Function Attrs: nounwind uwtable
define internal fastcc i32 @Sim_ComputeSuppRound(ptr noundef %0, i32 noundef range(i32 0, 2) %1) unnamed_addr #0 {
  %3 = alloca %struct.timespec, align 8
  %4 = alloca %struct.timespec, align 8
  call void @llvm.lifetime.start.p0(i64 16, ptr nonnull %4) #12
  %5 = call i32 @clock_gettime(i32 noundef 1, ptr noundef nonnull %4) #12
  %6 = icmp slt i32 %5, 0
  br i1 %6, label %Abc_Clock.exit, label %7

7:                                                ; preds = %2
  %8 = load i64, ptr %4, align 8, !tbaa !41
  %.neg20 = mul i64 %8, -1000000
  %9 = getelementptr inbounds nuw i8, ptr %4, i64 8
  %10 = load i64, ptr %9, align 8, !tbaa !44
  %.neg = sdiv i64 %10, -1000
  %.neg21 = add i64 %.neg, %.neg20
  br label %Abc_Clock.exit

Abc_Clock.exit:                                   ; preds = %2, %7
  %.0.i.neg = phi i64 [ %.neg21, %7 ], [ 1, %2 ]
  call void @llvm.lifetime.end.p0(i64 16, ptr nonnull %4) #12
  call void @Sim_UtilSimulate(ptr noundef %0, i32 noundef 0) #12
  call void @llvm.lifetime.start.p0(i64 16, ptr nonnull %3) #12
  %11 = call i32 @clock_gettime(i32 noundef 1, ptr noundef nonnull %3) #12
  %12 = icmp slt i32 %11, 0
  br i1 %12, label %Abc_Clock.exit19, label %13

13:                                               ; preds = %Abc_Clock.exit
  %14 = load i64, ptr %3, align 8, !tbaa !41
  %15 = mul nsw i64 %14, 1000000
  %16 = getelementptr inbounds nuw i8, ptr %3, i64 8
  %17 = load i64, ptr %16, align 8, !tbaa !44
  %18 = sdiv i64 %17, 1000
  %19 = add nsw i64 %18, %15
  br label %Abc_Clock.exit19

Abc_Clock.exit19:                                 ; preds = %Abc_Clock.exit, %13
  %.0.i18 = phi i64 [ %19, %13 ], [ -1, %Abc_Clock.exit ]
  call void @llvm.lifetime.end.p0(i64 16, ptr nonnull %3) #12
  %20 = add i64 %.0.i18, %.0.i.neg
  %21 = getelementptr inbounds nuw i8, ptr %0, i64 128
  %22 = load i64, ptr %21, align 8, !tbaa !92
  %23 = add nsw i64 %20, %22
  store i64 %23, ptr %21, align 8, !tbaa !92
  %24 = getelementptr inbounds nuw i8, ptr %0, i64 80
  %25 = load i32, ptr %24, align 8, !tbaa !85
  %26 = getelementptr inbounds nuw i8, ptr %0, i64 8
  %27 = load i32, ptr %26, align 8, !tbaa !93
  %28 = icmp slt i32 %25, %27
  br i1 %28, label %.lr.ph, label %._crit_edge

.lr.ph:                                           ; preds = %Abc_Clock.exit19
  %.not = icmp eq i32 %1, 0
  %29 = getelementptr inbounds nuw i8, ptr %0, i64 72
  br i1 %.not, label %.split.us, label %.lr.ph.split.preheader

.lr.ph.split.preheader:                           ; preds = %.lr.ph
  %30 = sext i32 %25 to i64
  br label %.lr.ph.split

.split.us:                                        ; preds = %.lr.ph, %.split.us
  %.023.us = phi i32 [ %33, %.split.us ], [ %25, %.lr.ph ]
  %.01522.us = phi i32 [ %32, %.split.us ], [ 0, %.lr.ph ]
  %31 = call fastcc i32 @Sim_ComputeSuppRoundNode(ptr noundef nonnull %0, i32 noundef %.023.us, i32 noundef 0)
  %32 = add nsw i32 %31, %.01522.us
  %33 = add nsw i32 %.023.us, 1
  %34 = load i32, ptr %26, align 8, !tbaa !93
  %35 = icmp slt i32 %33, %34
  br i1 %35, label %.split.us, label %._crit_edge, !llvm.loop !94

.lr.ph.split:                                     ; preds = %.lr.ph.split.preheader, %48
  %36 = phi i32 [ %27, %.lr.ph.split.preheader ], [ %49, %48 ]
  %indvars.iv = phi i64 [ %30, %.lr.ph.split.preheader ], [ %indvars.iv.next, %48 ]
  %.01522 = phi i32 [ 0, %.lr.ph.split.preheader ], [ %.1, %48 ]
  %37 = load ptr, ptr %29, align 8, !tbaa !60
  %38 = getelementptr inbounds nuw i8, ptr %37, i64 8
  %39 = load ptr, ptr %38, align 8, !tbaa !64
  %40 = getelementptr inbounds ptr, ptr %39, i64 %indvars.iv
  %41 = load ptr, ptr %40, align 8, !tbaa !28
  %42 = getelementptr inbounds nuw i8, ptr %41, i64 4
  %43 = load i32, ptr %42, align 4, !tbaa !24
  %44 = icmp eq i32 %43, 0
  br i1 %44, label %48, label %.split16

.split16:                                         ; preds = %.lr.ph.split
  %45 = trunc nsw i64 %indvars.iv to i32
  %46 = call fastcc i32 @Sim_ComputeSuppRoundNode(ptr noundef nonnull %0, i32 noundef %45, i32 noundef 1)
  %47 = add nsw i32 %46, %.01522
  %.pre = load i32, ptr %26, align 8, !tbaa !93
  br label %48

48:                                               ; preds = %.lr.ph.split, %.split16
  %49 = phi i32 [ %36, %.lr.ph.split ], [ %.pre, %.split16 ]
  %.1 = phi i32 [ %.01522, %.lr.ph.split ], [ %47, %.split16 ]
  %indvars.iv.next = add nsw i64 %indvars.iv, 1
  %50 = sext i32 %49 to i64
  %51 = icmp slt i64 %indvars.iv.next, %50
  br i1 %51, label %.lr.ph.split, label %._crit_edge, !llvm.loop !94

._crit_edge:                                      ; preds = %48, %.split.us, %Abc_Clock.exit19
  %.015.lcssa = phi i32 [ 0, %Abc_Clock.exit19 ], [ %32, %.split.us ], [ %.1, %48 ]
  ret i32 %.015.lcssa
}